target datalayout = "e-m:e-p270:32:32-p271:32:32-p272:64:64-i64:64-i128:128-f80:128-n8:16:32:64-S128"
target triple = "x86_64-pc-linux-gnu"

%struct.lexbor_bst = type { ptr, ptr, i64 }
%struct.lexbor_bst_entry = type { ptr, ptr, ptr, ptr, ptr, i64 }

; Function Attrs: nounwind uwtable
define hidden ptr @lexbor_bst_insert(ptr noundef %0, ptr noundef %1, i64 noundef %2, ptr noundef %3) #0 {
  %5 = alloca ptr, align 8
  %6 = alloca ptr, align 8
  %7 = alloca ptr, align 8
  %8 = alloca i64, align 8
  %9 = alloca ptr, align 8
  %10 = alloca ptr, align 8
  %11 = alloca ptr, align 8
  store ptr %0, ptr %6, align 8
  store ptr %1, ptr %7, align 8
  store i64 %2, ptr %8, align 8
  store ptr %3, ptr %9, align 8
  %12 = load ptr, ptr %6, align 8
  %13 = getelementptr inbounds %struct.lexbor_bst, ptr %12, i32 0, i32 0
  %14 = load ptr, ptr %13, align 8
  %15 = call ptr @lexbor_dobject_calloc(ptr noundef %14)
  store ptr %15, ptr %10, align 8
  %16 = load ptr, ptr %10, align 8
  %17 = icmp eq ptr %16, null
  br i1 %17, label %18, label %19

18:                                               ; preds = %4
  store ptr null, ptr %5, align 8
  br label %113

19:                                               ; preds = %4
  %20 = load i64, ptr %8, align 8
  %21 = load ptr, ptr %10, align 8
  %22 = getelementptr inbounds %struct.lexbor_bst_entry, ptr %21, i32 0, i32 5
  store i64 %20, ptr %22, align 8
  %23 = load ptr, ptr %9, align 8
  %24 = load ptr, ptr %10, align 8
  %25 = getelementptr inbounds %struct.lexbor_bst_entry, ptr %24, i32 0, i32 0
  store ptr %23, ptr %25, align 8
  %26 = load ptr, ptr %6, align 8
  %27 = getelementptr inbounds %struct.lexbor_bst, ptr %26, i32 0, i32 2
  %28 = load i64, ptr %27, align 8
  %29 = add i64 %28, 1
  store i64 %29, ptr %27, align 8
  %30 = load ptr, ptr %7, align 8
  %31 = load ptr, ptr %30, align 8
  %32 = icmp eq ptr %31, null
  br i1 %32, label %33, label %37

33:                                               ; preds = %19
  %34 = load ptr, ptr %10, align 8
  %35 = load ptr, ptr %7, align 8
  store ptr %34, ptr %35, align 8
  %36 = load ptr, ptr %10, align 8
  store ptr %36, ptr %5, align 8
  br label %113

37:                                               ; preds = %19
  %38 = load ptr, ptr %7, align 8
  %39 = load ptr, ptr %38, align 8
  store ptr %39, ptr %11, align 8
  br label %40

40:                                               ; preds = %111, %37
  %41 = load ptr, ptr %11, align 8
  %42 = icmp ne ptr %41, null
  br i1 %42, label %43, label %112

43:                                               ; preds = %40
  %44 = load i64, ptr %8, align 8
  %45 = load ptr, ptr %11, align 8
  %46 = getelementptr inbounds %struct.lexbor_bst_entry, ptr %45, i32 0, i32 5
  %47 = load i64, ptr %46, align 8
  %48 = icmp eq i64 %44, %47
  br i1 %48, label %49, label %70

49:                                               ; preds = %43
  %50 = load ptr, ptr %11, align 8
  %51 = getelementptr inbounds %struct.lexbor_bst_entry, ptr %50, i32 0, i32 3
  %52 = load ptr, ptr %51, align 8
  %53 = icmp ne ptr %52, null
  br i1 %53, label %54, label %60

54:                                               ; preds = %49
  %55 = load ptr, ptr %11, align 8
  %56 = getelementptr inbounds %struct.lexbor_bst_entry, ptr %55, i32 0, i32 3
  %57 = load ptr, ptr %56, align 8
  %58 = load ptr, ptr %10, align 8
  %59 = getelementptr inbounds %struct.lexbor_bst_entry, ptr %58, i32 0, i32 3
  store ptr %57, ptr %59, align 8
  br label %60

60:                                               ; preds = %54, %49
  %61 = load ptr, ptr %10, align 8
  %62 = load ptr, ptr %11, align 8
  %63 = getelementptr inbounds %struct.lexbor_bst_entry, ptr %62, i32 0, i32 3
  store ptr %61, ptr %63, align 8
  %64 = load ptr, ptr %11, align 8
  %65 = getelementptr inbounds %struct.lexbor_bst_entry, ptr %64, i32 0, i32 4
  %66 = load ptr, ptr %65, align 8
  %67 = load ptr, ptr %10, align 8
  %68 = getelementptr inbounds %struct.lexbor_bst_entry, ptr %67, i32 0, i32 4
  store ptr %66, ptr %68, align 8
  %69 = load ptr, ptr %10, align 8
  store ptr %69, ptr %5, align 8
  br label %113

70:                                               ; preds = %43
  %71 = load i64, ptr %8, align 8
  %72 = load ptr, ptr %11, align 8
  %73 = getelementptr inbounds %struct.lexbor_bst_entry, ptr %72, i32 0, i32 5
  %74 = load i64, ptr %73, align 8
  %75 = icmp ugt i64 %71, %74
  br i1 %75, label %76, label %93

76:                                               ; preds = %70
  %77 = load ptr, ptr %11, align 8
  %78 = getelementptr inbounds %struct.lexbor_bst_entry, ptr %77, i32 0, i32 1
  %79 = load ptr, ptr %78, align 8
  %80 = icmp eq ptr %79, null
  br i1 %80, label %81, label %89

81:                                               ; preds = %76
  %82 = load ptr, ptr %10, align 8
  %83 = load ptr, ptr %11, align 8
  %84 = getelementptr inbounds %struct.lexbor_bst_entry, ptr %83, i32 0, i32 1
  store ptr %82, ptr %84, align 8
  %85 = load ptr, ptr %11, align 8
  %86 = load ptr, ptr %10, align 8
  %87 = getelementptr inbounds %struct.lexbor_bst_entry, ptr %86, i32 0, i32 4
  store ptr %85, ptr %87, align 8
  %88 = load ptr, ptr %10, align 8
  store ptr %88, ptr %5, align 8
  br label %113

89:                                               ; preds = %76
  %90 = load ptr, ptr %11, align 8
  %91 = getelementptr inbounds %struct.lexbor_bst_entry, ptr %90, i32 0, i32 1
  %92 = load ptr, ptr %91, align 8
  store ptr %92, ptr %11, align 8
  br label %110

93:                                               ; preds = %70
  %94 = load ptr, ptr %11, align 8
  %95 = getelementptr inbounds %struct.lexbor_bst_entry, ptr %94, i32 0, i32 2
  %96 = load ptr, ptr %95, align 8
  %97 = icmp eq ptr %96, null
  br i1 %97, label %98, label %106

98:                                               ; preds = %93
  %99 = load ptr, ptr %10, align 8
  %100 = load ptr, ptr %11, align 8
  %101 = getelementptr inbounds %struct.lexbor_bst_entry, ptr %100, i32 0, i32 2
  store ptr %99, ptr %101, align 8
  %102 = load ptr, ptr %11, align 8
  %103 = load ptr, ptr %10, align 8
  %104 = getelementptr inbounds %struct.lexbor_bst_entry, ptr %103, i32 0, i32 4
  store ptr %102, ptr %104, align 8
  %105 = load ptr, ptr %10, align 8
  store ptr %105, ptr %5, align 8
  br label %113

106:                                              ; preds = %93
  %107 = load ptr, ptr %11, align 8
  %108 = getelementptr inbounds %struct.lexbor_bst_entry, ptr %107, i32 0, i32 2
  %109 = load ptr, ptr %108, align 8
  store ptr %109, ptr %11, align 8
  br label %110

110:                                              ; preds = %106, %89
  br label %111

111:                                              ; preds = %110
  br label %40

112:                                              ; preds = %40
  store ptr null, ptr %5, align 8
  br label %113

113:                                              ; preds = %112, %98, %81, %60, %33, %18
  %114 = load ptr, ptr %5, align 8
  ret ptr %114
}