; Function Attrs: nounwind uwtable
define hidden ptr @lexbor_bst_insert(ptr nocapture noundef %0, ptr nocapture noundef %1, i64 noundef %2, ptr noundef %3) local_unnamed_addr #0 {
  %5 = load ptr, ptr %0, align 8
  %6 = tail call ptr @lexbor_dobject_calloc(ptr noundef %5) #5
  %7 = icmp eq ptr %6, null
  br i1 %7, label %47, label %8

8:                                                ; preds = %4
  %9 = getelementptr inbounds i8, ptr %6, i64 40
  store i64 %2, ptr %9, align 8
  store ptr %3, ptr %6, align 8
  %10 = getelementptr inbounds i8, ptr %0, i64 16
  %11 = load i64, ptr %10, align 8
  %12 = add i64 %11, 1
  store i64 %12, ptr %10, align 8
  %13 = load ptr, ptr %1, align 8
  %14 = icmp eq ptr %13, null
  br i1 %14, label %18, label %.preheader

.preheader:                                       ; preds = %8
  %15 = getelementptr inbounds i8, ptr %13, i64 40
  %16 = load i64, ptr %15, align 8
  %17 = icmp eq i64 %16, %2
  br i1 %17, label %._crit_edge, label %.lr.ph

18:                                               ; preds = %8
  store ptr %6, ptr %1, align 8
  br label %47

._crit_edge:                                      ; preds = %43, %.preheader
  %.0.lcssa = phi ptr [ %13, %.preheader ], [ %.1, %43 ]
  %19 = getelementptr inbounds i8, ptr %.0.lcssa, i64 24
  %20 = load ptr, ptr %19, align 8
  %.not = icmp eq ptr %20, null
  br i1 %.not, label %23, label %21

21:                                               ; preds = %._crit_edge
  %22 = getelementptr inbounds i8, ptr %6, i64 24
  store ptr %20, ptr %22, align 8
  br label %23

23:                                               ; preds = %21, %._crit_edge
  store ptr %6, ptr %19, align 8
  %24 = getelementptr inbounds i8, ptr %.0.lcssa, i64 32
  %25 = load ptr, ptr %24, align 8
  %26 = getelementptr inbounds i8, ptr %6, i64 32
  store ptr %25, ptr %26, align 8
  br label %47

.lr.ph:                                           ; preds = %.preheader, %43
  %27 = phi i64 [ %45, %43 ], [ %16, %.preheader ]
  %.052 = phi ptr [ %.1, %43 ], [ %13, %.preheader ]
  %28 = icmp ult i64 %27, %2
  br i1 %28, label %29, label %36

29:                                               ; preds = %.lr.ph
  %30 = getelementptr inbounds i8, ptr %.052, i64 8
  %31 = load ptr, ptr %30, align 8
  %32 = icmp eq ptr %31, null
  br i1 %32, label %33, label %43

33:                                               ; preds = %29
  %34 = getelementptr inbounds i8, ptr %.052, i64 8
  store ptr %6, ptr %34, align 8
  %35 = getelementptr inbounds i8, ptr %6, i64 32
  store ptr %.052, ptr %35, align 8
  br label %47

36:                                               ; preds = %.lr.ph
  %37 = getelementptr inbounds i8, ptr %.052, i64 16
  %38 = load ptr, ptr %37, align 8
  %39 = icmp eq ptr %38, null
  br i1 %39, label %40, label %43

40:                                               ; preds = %36
  %41 = getelementptr inbounds i8, ptr %.052, i64 16
  store ptr %6, ptr %41, align 8
  %42 = getelementptr inbounds i8, ptr %6, i64 32
  store ptr %.052, ptr %42, align 8
  br label %47

43:                                               ; preds = %36, %29
  %.1 = phi ptr [ %31, %29 ], [ %38, %36 ]
  %44 = getelementptr inbounds i8, ptr %.1, i64 40
  %45 = load i64, ptr %44, align 8
  %46 = icmp eq i64 %45, %2
  br i1 %46, label %._crit_edge, label %.lr.ph

47:                                               ; preds = %4, %40, %33, %23, %18
  ret ptr %6
}